#include <math.h>
#include <stdio.h>
#include <stdlib.h>
#include <string.h>

void main()
{
int n,m,i,k,l,j=0,*p;
int a[100000];
scanf("%d",&n);
p=a;
for(i=0;i<n;i++)
scanf("%d",p++);
p=a;
scanf("%d",&m);
for(i=0;i<n-j;i++)
{
if(*(p+i)==m)
{
j++;
{for(l=i;l<n;l++)
*(p+l)=*(p+l+1);}

i--;
}
}
for(i=0;i<n-j-1;i++)
{printf("%d ",*p);p++;}
p=a;
printf("%d",*(p+n-j-1));
}