; ModuleID = '42/653.c'
source_filename = "42/653.c"
target datalayout = "e-m:e-p270:32:32-p271:32:32-p272:64:64-i64:64-f80:128-n8:16:32:64-S128"
target triple = "x86_64-pc-linux-gnu"

@.str = private unnamed_addr constant [3 x i8] c"%d\00", align 1
@.str.1 = private unnamed_addr constant [4 x i8] c"%d \00", align 1

; Function Attrs: noinline nounwind uwtable
define dso_local void @main() #0 {
  %1 = alloca i32, align 4
  %2 = alloca i32, align 4
  %3 = alloca i32, align 4
  %4 = alloca i32, align 4
  %5 = alloca i32, align 4
  %6 = alloca i32, align 4
  %7 = alloca i32*, align 8
  %8 = alloca [100000 x i32], align 16
  store i32 0, i32* %6, align 4
  %9 = call i32 (i8*, ...) @__isoc99_scanf(i8* getelementptr inbounds ([3 x i8], [3 x i8]* @.str, i64 0, i64 0), i32* %1)
  %10 = getelementptr inbounds [100000 x i32], [100000 x i32]* %8, i64 0, i64 0
  store i32* %10, i32** %7, align 8
  store i32 0, i32* %3, align 4
  br label %11

11:                                               ; preds = %19, %0
  %12 = load i32, i32* %3, align 4
  %13 = load i32, i32* %1, align 4
  %14 = icmp slt i32 %12, %13
  br i1 %14, label %15, label %22

15:                                               ; preds = %11
  %16 = load i32*, i32** %7, align 8
  %17 = getelementptr inbounds i32, i32* %16, i32 1
  store i32* %17, i32** %7, align 8
  %18 = call i32 (i8*, ...) @__isoc99_scanf(i8* getelementptr inbounds ([3 x i8], [3 x i8]* @.str, i64 0, i64 0), i32* %16)
  br label %19

19:                                               ; preds = %15
  %20 = load i32, i32* %3, align 4
  %21 = add nsw i32 %20, 1
  store i32 %21, i32* %3, align 4
  br label %11

22:                                               ; preds = %11
  %23 = getelementptr inbounds [100000 x i32], [100000 x i32]* %8, i64 0, i64 0
  store i32* %23, i32** %7, align 8
  %24 = call i32 (i8*, ...) @__isoc99_scanf(i8* getelementptr inbounds ([3 x i8], [3 x i8]* @.str, i64 0, i64 0), i32* %2)
  store i32 0, i32* %3, align 4
  br label %25

25:                                               ; preds = %65, %22
  %26 = load i32, i32* %3, align 4
  %27 = load i32, i32* %1, align 4
  %28 = load i32, i32* %6, align 4
  %29 = sub nsw i32 %27, %28
  %30 = icmp slt i32 %26, %29
  br i1 %30, label %31, label %68

31:                                               ; preds = %25
  %32 = load i32*, i32** %7, align 8
  %33 = load i32, i32* %3, align 4
  %34 = sext i32 %33 to i64
  %35 = getelementptr inbounds i32, i32* %32, i64 %34
  %36 = load i32, i32* %35, align 4
  %37 = load i32, i32* %2, align 4
  %38 = icmp eq i32 %36, %37
  br i1 %38, label %39, label %64

39:                                               ; preds = %31
  %40 = load i32, i32* %6, align 4
  %41 = add nsw i32 %40, 1
  store i32 %41, i32* %6, align 4
  %42 = load i32, i32* %3, align 4
  store i32 %42, i32* %5, align 4
  br label %43

43:                                               ; preds = %58, %39
  %44 = load i32, i32* %5, align 4
  %45 = load i32, i32* %1, align 4
  %46 = icmp slt i32 %44, %45
  br i1 %46, label %47, label %61

47:                                               ; preds = %43
  %48 = load i32*, i32** %7, align 8
  %49 = load i32, i32* %5, align 4
  %50 = sext i32 %49 to i64
  %51 = getelementptr inbounds i32, i32* %48, i64 %50
  %52 = getelementptr inbounds i32, i32* %51, i64 1
  %53 = load i32, i32* %52, align 4
  %54 = load i32*, i32** %7, align 8
  %55 = load i32, i32* %5, align 4
  %56 = sext i32 %55 to i64
  %57 = getelementptr inbounds i32, i32* %54, i64 %56
  store i32 %53, i32* %57, align 4
  br label %58

58:                                               ; preds = %47
  %59 = load i32, i32* %5, align 4
  %60 = add nsw i32 %59, 1
  store i32 %60, i32* %5, align 4
  br label %43

61:                                               ; preds = %43
  %62 = load i32, i32* %3, align 4
  %63 = add nsw i32 %62, -1
  store i32 %63, i32* %3, align 4
  br label %64

64:                                               ; preds = %61, %31
  br label %65

65:                                               ; preds = %64
  %66 = load i32, i32* %3, align 4
  %67 = add nsw i32 %66, 1
  store i32 %67, i32* %3, align 4
  br label %25

68:                                               ; preds = %25
  store i32 0, i32* %3, align 4
  br label %69

69:                                               ; preds = %82, %68
  %70 = load i32, i32* %3, align 4
  %71 = load i32, i32* %1, align 4
  %72 = load i32, i32* %6, align 4
  %73 = sub nsw i32 %71, %72
  %74 = sub nsw i32 %73, 1
  %75 = icmp slt i32 %70, %74
  br i1 %75, label %76, label %85

76:                                               ; preds = %69
  %77 = load i32*, i32** %7, align 8
  %78 = load i32, i32* %77, align 4
  %79 = call i32 (i8*, ...) @printf(i8* getelementptr inbounds ([4 x i8], [4 x i8]* @.str.1, i64 0, i64 0), i32 %78)
  %80 = load i32*, i32** %7, align 8
  %81 = getelementptr inbounds i32, i32* %80, i32 1
  store i32* %81, i32** %7, align 8
  br label %82

82:                                               ; preds = %76
  %83 = load i32, i32* %3, align 4
  %84 = add nsw i32 %83, 1
  store i32 %84, i32* %3, align 4
  br label %69

85:                                               ; preds = %69
  %86 = getelementptr inbounds [100000 x i32], [100000 x i32]* %8, i64 0, i64 0
  store i32* %86, i32** %7, align 8
  %87 = load i32*, i32** %7, align 8
  %88 = load i32, i32* %1, align 4
  %89 = sext i32 %88 to i64
  %90 = getelementptr inbounds i32, i32* %87, i64 %89
  %91 = load i32, i32* %6, align 4
  %92 = sext i32 %91 to i64
  %93 = sub i64 0, %92
  %94 = getelementptr inbounds i32, i32* %90, i64 %93
  %95 = getelementptr inbounds i32, i32* %94, i64 -1
  %96 = load i32, i32* %95, align 4
  %97 = call i32 (i8*, ...) @printf(i8* getelementptr inbounds ([3 x i8], [3 x i8]* @.str, i64 0, i64 0), i32 %96)
  ret void
}

declare dso_local i32 @__isoc99_scanf(i8*, ...) #1

declare dso_local i32 @printf(i8*, ...) #1


!llvm.module.flags = !{!0}
!llvm.ident = !{!1}

!0 = !{i32 1, !"wchar_size", i32 4}
!1 = !{!"clang version 10.0.0-4ubuntu1 "}
